; ModuleID = '9/1533.c'
source_filename = "9/1533.c"
target datalayout = "e-m:e-p270:32:32-p271:32:32-p272:64:64-i64:64-f80:128-n8:16:32:64-S128"
target triple = "x86_64-pc-linux-gnu"

%struct.pat = type { [10 x i8], i32 }

@.str = private unnamed_addr constant [3 x i8] c"%d\00", align 1
@.str.1 = private unnamed_addr constant [6 x i8] c"%s %d\00", align 1
@.str.2 = private unnamed_addr constant [4 x i8] c"%s\0A\00", align 1

; Function Attrs: noinline nounwind uwtable
define dso_local i32 @main() #0 {
  %1 = alloca i32, align 4
  %2 = alloca i32, align 4
  %3 = alloca i32, align 4
  %4 = alloca [100 x %struct.pat*], align 16
  %5 = alloca [100 x %struct.pat*], align 16
  %6 = alloca [100 x %struct.pat*], align 16
  %7 = alloca %struct.pat*, align 8
  %8 = alloca i32, align 4
  %9 = alloca i32, align 4
  %10 = alloca i32, align 4
  %11 = alloca i32, align 4
  store i32 0, i32* %1, align 4
  %12 = call i32 (i8*, ...) @__isoc99_scanf(i8* getelementptr inbounds ([3 x i8], [3 x i8]* @.str, i64 0, i64 0), i32* %2)
  store i32 0, i32* %3, align 4
  br label %13

13:                                               ; preds = %35, %0
  %14 = load i32, i32* %3, align 4
  %15 = load i32, i32* %2, align 4
  %16 = icmp slt i32 %14, %15
  br i1 %16, label %17, label %38

17:                                               ; preds = %13
  %18 = call noalias i8* @malloc(i64 100) #3
  %19 = bitcast i8* %18 to %struct.pat*
  %20 = load i32, i32* %3, align 4
  %21 = sext i32 %20 to i64
  %22 = getelementptr inbounds [100 x %struct.pat*], [100 x %struct.pat*]* %4, i64 0, i64 %21
  store %struct.pat* %19, %struct.pat** %22, align 8
  %23 = load i32, i32* %3, align 4
  %24 = sext i32 %23 to i64
  %25 = getelementptr inbounds [100 x %struct.pat*], [100 x %struct.pat*]* %4, i64 0, i64 %24
  %26 = load %struct.pat*, %struct.pat** %25, align 8
  %27 = getelementptr inbounds %struct.pat, %struct.pat* %26, i32 0, i32 0
  %28 = getelementptr inbounds [10 x i8], [10 x i8]* %27, i64 0, i64 0
  %29 = load i32, i32* %3, align 4
  %30 = sext i32 %29 to i64
  %31 = getelementptr inbounds [100 x %struct.pat*], [100 x %struct.pat*]* %4, i64 0, i64 %30
  %32 = load %struct.pat*, %struct.pat** %31, align 8
  %33 = getelementptr inbounds %struct.pat, %struct.pat* %32, i32 0, i32 1
  %34 = call i32 (i8*, ...) @__isoc99_scanf(i8* getelementptr inbounds ([6 x i8], [6 x i8]* @.str.1, i64 0, i64 0), i8* %28, i32* %33)
  br label %35

35:                                               ; preds = %17
  %36 = load i32, i32* %3, align 4
  %37 = add nsw i32 %36, 1
  store i32 %37, i32* %3, align 4
  br label %13

38:                                               ; preds = %13
  store i32 0, i32* %8, align 4
  store i32 0, i32* %9, align 4
  store i32 0, i32* %3, align 4
  br label %39

39:                                               ; preds = %72, %38
  %40 = load i32, i32* %3, align 4
  %41 = load i32, i32* %2, align 4
  %42 = icmp slt i32 %40, %41
  br i1 %42, label %43, label %75

43:                                               ; preds = %39
  %44 = load i32, i32* %3, align 4
  %45 = sext i32 %44 to i64
  %46 = getelementptr inbounds [100 x %struct.pat*], [100 x %struct.pat*]* %4, i64 0, i64 %45
  %47 = load %struct.pat*, %struct.pat** %46, align 8
  %48 = getelementptr inbounds %struct.pat, %struct.pat* %47, i32 0, i32 1
  %49 = load i32, i32* %48, align 4
  %50 = icmp sge i32 %49, 60
  br i1 %50, label %51, label %61

51:                                               ; preds = %43
  %52 = load i32, i32* %3, align 4
  %53 = sext i32 %52 to i64
  %54 = getelementptr inbounds [100 x %struct.pat*], [100 x %struct.pat*]* %4, i64 0, i64 %53
  %55 = load %struct.pat*, %struct.pat** %54, align 8
  %56 = load i32, i32* %8, align 4
  %57 = sext i32 %56 to i64
  %58 = getelementptr inbounds [100 x %struct.pat*], [100 x %struct.pat*]* %5, i64 0, i64 %57
  store %struct.pat* %55, %struct.pat** %58, align 8
  %59 = load i32, i32* %8, align 4
  %60 = add nsw i32 %59, 1
  store i32 %60, i32* %8, align 4
  br label %71

61:                                               ; preds = %43
  %62 = load i32, i32* %3, align 4
  %63 = sext i32 %62 to i64
  %64 = getelementptr inbounds [100 x %struct.pat*], [100 x %struct.pat*]* %4, i64 0, i64 %63
  %65 = load %struct.pat*, %struct.pat** %64, align 8
  %66 = load i32, i32* %9, align 4
  %67 = sext i32 %66 to i64
  %68 = getelementptr inbounds [100 x %struct.pat*], [100 x %struct.pat*]* %6, i64 0, i64 %67
  store %struct.pat* %65, %struct.pat** %68, align 8
  %69 = load i32, i32* %9, align 4
  %70 = add nsw i32 %69, 1
  store i32 %70, i32* %9, align 4
  br label %71

71:                                               ; preds = %61, %51
  br label %72

72:                                               ; preds = %71
  %73 = load i32, i32* %3, align 4
  %74 = add nsw i32 %73, 1
  store i32 %74, i32* %3, align 4
  br label %39

75:                                               ; preds = %39
  %76 = load i32, i32* %8, align 4
  store i32 %76, i32* %10, align 4
  %77 = load i32, i32* %9, align 4
  store i32 %77, i32* %11, align 4
  store i32 1, i32* %8, align 4
  br label %78

78:                                               ; preds = %127, %75
  %79 = load i32, i32* %8, align 4
  %80 = load i32, i32* %10, align 4
  %81 = icmp slt i32 %79, %80
  br i1 %81, label %82, label %130

82:                                               ; preds = %78
  store i32 0, i32* %3, align 4
  br label %83

83:                                               ; preds = %123, %82
  %84 = load i32, i32* %3, align 4
  %85 = load i32, i32* %10, align 4
  %86 = load i32, i32* %8, align 4
  %87 = sub nsw i32 %85, %86
  %88 = icmp slt i32 %84, %87
  br i1 %88, label %89, label %126

89:                                               ; preds = %83
  %90 = load i32, i32* %3, align 4
  %91 = sext i32 %90 to i64
  %92 = getelementptr inbounds [100 x %struct.pat*], [100 x %struct.pat*]* %5, i64 0, i64 %91
  %93 = load %struct.pat*, %struct.pat** %92, align 8
  %94 = getelementptr inbounds %struct.pat, %struct.pat* %93, i32 0, i32 1
  %95 = load i32, i32* %94, align 4
  %96 = load i32, i32* %3, align 4
  %97 = add nsw i32 %96, 1
  %98 = sext i32 %97 to i64
  %99 = getelementptr inbounds [100 x %struct.pat*], [100 x %struct.pat*]* %5, i64 0, i64 %98
  %100 = load %struct.pat*, %struct.pat** %99, align 8
  %101 = getelementptr inbounds %struct.pat, %struct.pat* %100, i32 0, i32 1
  %102 = load i32, i32* %101, align 4
  %103 = icmp slt i32 %95, %102
  br i1 %103, label %104, label %122

104:                                              ; preds = %89
  %105 = load i32, i32* %3, align 4
  %106 = sext i32 %105 to i64
  %107 = getelementptr inbounds [100 x %struct.pat*], [100 x %struct.pat*]* %5, i64 0, i64 %106
  %108 = load %struct.pat*, %struct.pat** %107, align 8
  store %struct.pat* %108, %struct.pat** %7, align 8
  %109 = load i32, i32* %3, align 4
  %110 = add nsw i32 %109, 1
  %111 = sext i32 %110 to i64
  %112 = getelementptr inbounds [100 x %struct.pat*], [100 x %struct.pat*]* %5, i64 0, i64 %111
  %113 = load %struct.pat*, %struct.pat** %112, align 8
  %114 = load i32, i32* %3, align 4
  %115 = sext i32 %114 to i64
  %116 = getelementptr inbounds [100 x %struct.pat*], [100 x %struct.pat*]* %5, i64 0, i64 %115
  store %struct.pat* %113, %struct.pat** %116, align 8
  %117 = load %struct.pat*, %struct.pat** %7, align 8
  %118 = load i32, i32* %3, align 4
  %119 = add nsw i32 %118, 1
  %120 = sext i32 %119 to i64
  %121 = getelementptr inbounds [100 x %struct.pat*], [100 x %struct.pat*]* %5, i64 0, i64 %120
  store %struct.pat* %117, %struct.pat** %121, align 8
  br label %122

122:                                              ; preds = %104, %89
  br label %123

123:                                              ; preds = %122
  %124 = load i32, i32* %3, align 4
  %125 = add nsw i32 %124, 1
  store i32 %125, i32* %3, align 4
  br label %83

126:                                              ; preds = %83
  br label %127

127:                                              ; preds = %126
  %128 = load i32, i32* %8, align 4
  %129 = add nsw i32 %128, 1
  store i32 %129, i32* %8, align 4
  br label %78

130:                                              ; preds = %78
  store i32 0, i32* %3, align 4
  br label %131

131:                                              ; preds = %143, %130
  %132 = load i32, i32* %3, align 4
  %133 = load i32, i32* %10, align 4
  %134 = icmp slt i32 %132, %133
  br i1 %134, label %135, label %146

135:                                              ; preds = %131
  %136 = load i32, i32* %3, align 4
  %137 = sext i32 %136 to i64
  %138 = getelementptr inbounds [100 x %struct.pat*], [100 x %struct.pat*]* %5, i64 0, i64 %137
  %139 = load %struct.pat*, %struct.pat** %138, align 8
  %140 = getelementptr inbounds %struct.pat, %struct.pat* %139, i32 0, i32 0
  %141 = getelementptr inbounds [10 x i8], [10 x i8]* %140, i64 0, i64 0
  %142 = call i32 (i8*, ...) @printf(i8* getelementptr inbounds ([4 x i8], [4 x i8]* @.str.2, i64 0, i64 0), i8* %141)
  br label %143

143:                                              ; preds = %135
  %144 = load i32, i32* %3, align 4
  %145 = add nsw i32 %144, 1
  store i32 %145, i32* %3, align 4
  br label %131

146:                                              ; preds = %131
  store i32 0, i32* %3, align 4
  br label %147

147:                                              ; preds = %159, %146
  %148 = load i32, i32* %3, align 4
  %149 = load i32, i32* %11, align 4
  %150 = icmp slt i32 %148, %149
  br i1 %150, label %151, label %162

151:                                              ; preds = %147
  %152 = load i32, i32* %3, align 4
  %153 = sext i32 %152 to i64
  %154 = getelementptr inbounds [100 x %struct.pat*], [100 x %struct.pat*]* %6, i64 0, i64 %153
  %155 = load %struct.pat*, %struct.pat** %154, align 8
  %156 = getelementptr inbounds %struct.pat, %struct.pat* %155, i32 0, i32 0
  %157 = getelementptr inbounds [10 x i8], [10 x i8]* %156, i64 0, i64 0
  %158 = call i32 (i8*, ...) @printf(i8* getelementptr inbounds ([4 x i8], [4 x i8]* @.str.2, i64 0, i64 0), i8* %157)
  br label %159

159:                                              ; preds = %151
  %160 = load i32, i32* %3, align 4
  %161 = add nsw i32 %160, 1
  store i32 %161, i32* %3, align 4
  br label %147

162:                                              ; preds = %147
  ret i32 0
}

declare dso_local i32 @__isoc99_scanf(i8*, ...) #1

; Function Attrs: nounwind
declare dso_local noalias i8* @malloc(i64) #2

declare dso_local i32 @printf(i8*, ...) #1


!llvm.module.flags = !{!0}
!llvm.ident = !{!1}

!0 = !{i32 1, !"wchar_size", i32 4}
!1 = !{!"clang version 10.0.0-4ubuntu1 "}
